target datalayout = "e-m:e-p270:32:32-p271:32:32-p272:64:64-i64:64-i128:128-f80:128-n8:16:32:64-S128"
target triple = "x86_64-pc-linux-gnu"

%"struct.pxrInternal_v0_24__pxrReserved__::TsTest_SplineData::InnerLoopParams" = type { i8, double, double, double, double, i8, double }
%"struct.pxrInternal_v0_24__pxrReserved__::TsTest_SplineData::Extrapolation" = type <{ i32, [4 x i8], double, i32, [4 x i8] }>
%"class.pxrInternal_v0_24__pxrReserved__::TsTest_SplineData" = type { i8, %"class.std::set", %"struct.pxrInternal_v0_24__pxrReserved__::TsTest_SplineData::Extrapolation", %"struct.pxrInternal_v0_24__pxrReserved__::TsTest_SplineData::Extrapolation", %"struct.pxrInternal_v0_24__pxrReserved__::TsTest_SplineData::InnerLoopParams" }
%"class.std::set" = type { %"class.std::_Rb_tree" }
%"class.std::_Rb_tree" = type { %"struct.std::_Rb_tree<pxrInternal_v0_24__pxrReserved__::TsTest_SplineData::Knot, pxrInternal_v0_24__pxrReserved__::TsTest_SplineData::Knot, std::_Identity<pxrInternal_v0_24__pxrReserved__::TsTest_SplineData::Knot>, std::less<pxrInternal_v0_24__pxrReserved__::TsTest_SplineData::Knot>>::_Rb_tree_impl" }
%"struct.std::_Rb_tree<pxrInternal_v0_24__pxrReserved__::TsTest_SplineData::Knot, pxrInternal_v0_24__pxrReserved__::TsTest_SplineData::Knot, std::_Identity<pxrInternal_v0_24__pxrReserved__::TsTest_SplineData::Knot>, std::less<pxrInternal_v0_24__pxrReserved__::TsTest_SplineData::Knot>>::_Rb_tree_impl" = type { [8 x i8], %"struct.std::_Rb_tree_header" }
%"struct.std::_Rb_tree_header" = type { %"struct.std::_Rb_tree_node_base", i64 }
%"struct.std::_Rb_tree_node_base" = type { i32, ptr, ptr, ptr }

@_ZN32pxrInternal_v0_24__pxrReserved__17TsTest_SplineData15InnerLoopParamsC1Ev = unnamed_addr alias void (ptr), ptr @_ZN32pxrInternal_v0_24__pxrReserved__17TsTest_SplineData15InnerLoopParamsC2Ev
@_ZN32pxrInternal_v0_24__pxrReserved__17TsTest_SplineData13ExtrapolationC1Ev = unnamed_addr alias void (ptr), ptr @_ZN32pxrInternal_v0_24__pxrReserved__17TsTest_SplineData13ExtrapolationC2Ev

; Function Attrs: noreturn nounwind uwtable
define linkonce_odr hidden void @__clang_call_terminate(ptr noundef %0) #7 comdat {
  %2 = call ptr @__cxa_begin_catch(ptr %0) #6
  call void @_ZSt9terminatev() #13
  unreachable
}

; Function Attrs: mustprogress nounwind uwtable
define linkonce_odr void @_ZNSt15_Rb_tree_header8_M_resetEv(ptr noundef nonnull align 8 dereferenceable(40) %0) #2 comdat align 2 {
  %2 = alloca ptr, align 8
  store ptr %0, ptr %2, align 8
  %3 = load ptr, ptr %2, align 8
  %4 = getelementptr inbounds nuw %"struct.std::_Rb_tree_header", ptr %3, i32 0, i32 0
  %5 = getelementptr inbounds nuw %"struct.std::_Rb_tree_node_base", ptr %4, i32 0, i32 1
  store ptr null, ptr %5, align 8
  %6 = getelementptr inbounds nuw %"struct.std::_Rb_tree_header", ptr %3, i32 0, i32 0
  %7 = getelementptr inbounds nuw %"struct.std::_Rb_tree_header", ptr %3, i32 0, i32 0
  %8 = getelementptr inbounds nuw %"struct.std::_Rb_tree_node_base", ptr %7, i32 0, i32 2
  store ptr %6, ptr %8, align 8
  %9 = getelementptr inbounds nuw %"struct.std::_Rb_tree_header", ptr %3, i32 0, i32 0
  %10 = getelementptr inbounds nuw %"struct.std::_Rb_tree_header", ptr %3, i32 0, i32 0
  %11 = getelementptr inbounds nuw %"struct.std::_Rb_tree_node_base", ptr %10, i32 0, i32 3
  store ptr %9, ptr %11, align 8
  %12 = getelementptr inbounds nuw %"struct.std::_Rb_tree_header", ptr %3, i32 0, i32 1
  store i64 0, ptr %12, align 8
  ret void
}

; Function Attrs: mustprogress nounwind uwtable
define linkonce_odr void @_ZNSt15__new_allocatorISt13_Rb_tree_nodeIN32pxrInternal_v0_24__pxrReserved__17TsTest_SplineData4KnotEEEC2Ev(ptr noundef nonnull align 1 dereferenceable(1) %0) unnamed_addr #2 comdat align 2 {
  %2 = alloca ptr, align 8
  store ptr %0, ptr %2, align 8
  ret void
}

; Function Attrs: mustprogress nounwind uwtable
define linkonce_odr void @_ZNSt15_Rb_tree_headerC2Ev(ptr noundef nonnull align 8 dereferenceable(40) %0) unnamed_addr #2 comdat align 2 personality ptr @__gxx_personality_v0 {
  %2 = alloca ptr, align 8
  store ptr %0, ptr %2, align 8
  %3 = load ptr, ptr %2, align 8
  %4 = getelementptr inbounds nuw %"struct.std::_Rb_tree_header", ptr %3, i32 0, i32 0
  %5 = getelementptr inbounds nuw %"struct.std::_Rb_tree_node_base", ptr %4, i32 0, i32 0
  store i32 0, ptr %5, align 8
  invoke void @_ZNSt15_Rb_tree_header8_M_resetEv(ptr noundef nonnull align 8 dereferenceable(40) %3)
          to label %6 unwind label %7

6:                                                ; preds = %1
  ret void

7:                                                ; preds = %1
  %8 = landingpad { ptr, i32 }
          catch ptr null
  %9 = extractvalue { ptr, i32 } %8, 0
  call void @__clang_call_terminate(ptr %9) #13
  unreachable
}

; Function Attrs: mustprogress nounwind uwtable
define linkonce_odr void @_ZNSt20_Rb_tree_key_compareISt4lessIN32pxrInternal_v0_24__pxrReserved__17TsTest_SplineData4KnotEEEC2Ev(ptr noundef nonnull align 1 dereferenceable(1) %0) unnamed_addr #2 comdat align 2 {
  %2 = alloca ptr, align 8
  store ptr %0, ptr %2, align 8
  ret void
}

; Function Attrs: mustprogress nounwind uwtable
define linkonce_odr void @_ZNSaISt13_Rb_tree_nodeIN32pxrInternal_v0_24__pxrReserved__17TsTest_SplineData4KnotEEEC2Ev(ptr noundef nonnull align 1 dereferenceable(1) %0) unnamed_addr #2 comdat align 2 {
  %2 = alloca ptr, align 8
  store ptr %0, ptr %2, align 8
  %3 = load ptr, ptr %2, align 8
  call void @_ZNSt15__new_allocatorISt13_Rb_tree_nodeIN32pxrInternal_v0_24__pxrReserved__17TsTest_SplineData4KnotEEEC2Ev(ptr noundef nonnull align 1 dereferenceable(1) %3) #6
  ret void
}

; Function Attrs: mustprogress nounwind uwtable
define linkonce_odr void @_ZNSt8_Rb_treeIN32pxrInternal_v0_24__pxrReserved__17TsTest_SplineData4KnotES2_St9_IdentityIS2_ESt4lessIS2_ESaIS2_EE13_Rb_tree_implIS6_Lb1EEC2Ev(ptr noundef nonnull align 8 dereferenceable(48) %0) unnamed_addr #2 comdat align 2 {
  %2 = alloca ptr, align 8
  store ptr %0, ptr %2, align 8
  %3 = load ptr, ptr %2, align 8
  call void @_ZNSaISt13_Rb_tree_nodeIN32pxrInternal_v0_24__pxrReserved__17TsTest_SplineData4KnotEEEC2Ev(ptr noundef nonnull align 1 dereferenceable(1) %3) #6
  call void @_ZNSt20_Rb_tree_key_compareISt4lessIN32pxrInternal_v0_24__pxrReserved__17TsTest_SplineData4KnotEEEC2Ev(ptr noundef nonnull align 1 dereferenceable(1) %3) #6
  %4 = getelementptr inbounds i8, ptr %3, i64 8
  call void @_ZNSt15_Rb_tree_headerC2Ev(ptr noundef nonnull align 8 dereferenceable(40) %4) #6
  ret void
}

; Function Attrs: mustprogress nounwind uwtable
define linkonce_odr void @_ZNSt8_Rb_treeIN32pxrInternal_v0_24__pxrReserved__17TsTest_SplineData4KnotES2_St9_IdentityIS2_ESt4lessIS2_ESaIS2_EEC2Ev(ptr noundef nonnull align 8 dereferenceable(48) %0) unnamed_addr #2 comdat align 2 {
  %2 = alloca ptr, align 8
  store ptr %0, ptr %2, align 8
  %3 = load ptr, ptr %2, align 8
  %4 = getelementptr inbounds nuw %"class.std::_Rb_tree", ptr %3, i32 0, i32 0
  call void @_ZNSt8_Rb_treeIN32pxrInternal_v0_24__pxrReserved__17TsTest_SplineData4KnotES2_St9_IdentityIS2_ESt4lessIS2_ESaIS2_EE13_Rb_tree_implIS6_Lb1EEC2Ev(ptr noundef nonnull align 8 dereferenceable(48) %4) #6
  ret void
}

; Function Attrs: mustprogress nounwind uwtable
define linkonce_odr void @_ZNSt3setIN32pxrInternal_v0_24__pxrReserved__17TsTest_SplineData4KnotESt4lessIS2_ESaIS2_EEC2Ev(ptr noundef nonnull align 8 dereferenceable(48) %0) unnamed_addr #2 comdat align 2 {
  %2 = alloca ptr, align 8
  store ptr %0, ptr %2, align 8
  %3 = load ptr, ptr %2, align 8
  %4 = getelementptr inbounds nuw %"class.std::set", ptr %3, i32 0, i32 0
  call void @_ZNSt8_Rb_treeIN32pxrInternal_v0_24__pxrReserved__17TsTest_SplineData4KnotES2_St9_IdentityIS2_ESt4lessIS2_ESaIS2_EEC2Ev(ptr noundef nonnull align 8 dereferenceable(48) %4) #6
  ret void
}

; Function Attrs: mustprogress uwtable
define void @_ZN32pxrInternal_v0_24__pxrReserved__17TsTest_SplineDataC2Ev(ptr noundef nonnull align 8 dereferenceable(160) %0) unnamed_addr #0 align 2 personality ptr @__gxx_personality_v0 {
  %2 = alloca ptr, align 8
  %3 = alloca ptr, align 8
  %4 = alloca i32, align 4
  store ptr %0, ptr %2, align 8
  %5 = load ptr, ptr %2, align 8
  %6 = getelementptr inbounds nuw %"class.pxrInternal_v0_24__pxrReserved__::TsTest_SplineData", ptr %5, i32 0, i32 0
  store i8 0, ptr %6, align 8
  %7 = getelementptr inbounds nuw %"class.pxrInternal_v0_24__pxrReserved__::TsTest_SplineData", ptr %5, i32 0, i32 1
  call void @_ZNSt3setIN32pxrInternal_v0_24__pxrReserved__17TsTest_SplineData4KnotESt4lessIS2_ESaIS2_EEC2Ev(ptr noundef nonnull align 8 dereferenceable(48) %7) #6
  %8 = getelementptr inbounds nuw %"class.pxrInternal_v0_24__pxrReserved__::TsTest_SplineData", ptr %5, i32 0, i32 2
  invoke void @_ZN32pxrInternal_v0_24__pxrReserved__17TsTest_SplineData13ExtrapolationC1Ev(ptr noundef nonnull align 8 dereferenceable(20) %8)
          to label %9 unwind label %14

9:                                                ; preds = %1
  %10 = getelementptr inbounds nuw %"class.pxrInternal_v0_24__pxrReserved__::TsTest_SplineData", ptr %5, i32 0, i32 3
  invoke void @_ZN32pxrInternal_v0_24__pxrReserved__17TsTest_SplineData13ExtrapolationC1Ev(ptr noundef nonnull align 8 dereferenceable(20) %10)
          to label %11 unwind label %14

11:                                               ; preds = %9
  %12 = getelementptr inbounds nuw %"class.pxrInternal_v0_24__pxrReserved__::TsTest_SplineData", ptr %5, i32 0, i32 4
  invoke void @_ZN32pxrInternal_v0_24__pxrReserved__17TsTest_SplineData15InnerLoopParamsC1Ev(ptr noundef nonnull align 8 dereferenceable(56) %12)
          to label %13 unwind label %14

13:                                               ; preds = %11
  ret void

14:                                               ; preds = %11, %9, %1
  %15 = landingpad { ptr, i32 }
          cleanup
  %16 = extractvalue { ptr, i32 } %15, 0
  store ptr %16, ptr %3, align 8
  %17 = extractvalue { ptr, i32 } %15, 1
  store i32 %17, ptr %4, align 4
  call void @_ZNSt3setIN32pxrInternal_v0_24__pxrReserved__17TsTest_SplineData4KnotESt4lessIS2_ESaIS2_EED2Ev(ptr noundef nonnull align 8 dereferenceable(48) %7) #6
  br label %18

18:                                               ; preds = %14
  %19 = load ptr, ptr %3, align 8
  %20 = load i32, ptr %4, align 4
  %21 = insertvalue { ptr, i32 } poison, ptr %19, 0
  %22 = insertvalue { ptr, i32 } %21, i32 %20, 1
  resume { ptr, i32 } %22
}