; Function Attrs: mustprogress uwtable
define void @_ZN32pxrInternal_v0_24__pxrReserved__17TsTest_SplineDataC2Ev(ptr noundef nonnull align 8 dereferenceable(160) %0) unnamed_addr #0 align 2 personality ptr @__gxx_personality_v0 {
  store i8 0, ptr %0, align 8
  %2 = getelementptr inbounds i8, ptr %0, i64 16
  store i32 0, ptr %2, align 8
  %3 = getelementptr inbounds i8, ptr %0, i64 24
  store ptr null, ptr %3, align 8
  %4 = getelementptr inbounds i8, ptr %0, i64 32
  store ptr %2, ptr %4, align 8
  %5 = getelementptr inbounds i8, ptr %0, i64 40
  store ptr %2, ptr %5, align 8
  %6 = getelementptr inbounds i8, ptr %0, i64 48
  store i64 0, ptr %6, align 8
  %7 = getelementptr inbounds nuw i8, ptr %0, i64 56
  invoke void @_ZN32pxrInternal_v0_24__pxrReserved__17TsTest_SplineData13ExtrapolationC1Ev(ptr noundef nonnull align 8 dereferenceable(20) %7)
          to label %8 unwind label %13

8:                                                ; preds = %1
  %9 = getelementptr inbounds nuw i8, ptr %0, i64 80
  invoke void @_ZN32pxrInternal_v0_24__pxrReserved__17TsTest_SplineData13ExtrapolationC1Ev(ptr noundef nonnull align 8 dereferenceable(20) %9)
          to label %10 unwind label %13

10:                                               ; preds = %8
  %11 = getelementptr inbounds nuw i8, ptr %0, i64 104
  invoke void @_ZN32pxrInternal_v0_24__pxrReserved__17TsTest_SplineData15InnerLoopParamsC1Ev(ptr noundef nonnull align 8 dereferenceable(56) %11)
          to label %12 unwind label %13

12:                                               ; preds = %10
  ret void

13:                                               ; preds = %10, %8, %1
  %14 = landingpad { ptr, i32 }
          cleanup
  %15 = getelementptr inbounds nuw i8, ptr %0, i64 8
  tail call void @_ZNSt3setIN32pxrInternal_v0_24__pxrReserved__17TsTest_SplineData4KnotESt4lessIS2_ESaIS2_EED2Ev(ptr noundef nonnull align 8 dereferenceable(48) %15) #19
  resume { ptr, i32 } %14
}